target datalayout = "e-m:e-p270:32:32-p271:32:32-p272:64:64-i64:64-i128:128-f80:128-n8:16:32:64-S128"
target triple = "x86_64-pc-linux-gnu"

%class.LogTagSet = type { ptr, i64, [5 x i32], [4 x i8], %class.LogOutputList, %class.LogDecorators, ptr }
%class.LogOutputList = type <{ [6 x ptr], i32, [4 x i8] }>
%class.LogDecorators = type { i32 }
%class.G1ServiceTask = type { ptr, i64, ptr, ptr, ptr }

@g_assert_poison = external global ptr, align 8
@.str.4 = private unnamed_addr constant [44 x i8] c"src/hotspot/share/gc/g1/g1ServiceThread.cpp\00", align 1
@.str.9 = private unnamed_addr constant [41 x i8] c"guarantee(!task->is_registered()) failed\00", align 1
@.str.10 = private unnamed_addr constant [24 x i8] c"Task already registered\00", align 1
@.str.11 = private unnamed_addr constant [42 x i8] c"guarantee(task->next() == nullptr) failed\00", align 1
@.str.12 = private unnamed_addr constant [22 x i8] c"Task already in queue\00", align 1
@.str.13 = private unnamed_addr constant [36 x i8] c"G1 Service Thread (%s) (terminated)\00", align 1
@.str.14 = private unnamed_addr constant [34 x i8] c"G1 Service Thread (%s) (register)\00", align 1
@_ZN16LogTagSetMappingILN6LogTag4typeE49ELS1_158ELS1_0ELS1_0ELS1_0ELS1_0EE7_tagsetE = linkonce_odr hidden global %class.LogTagSet zeroinitializer, comdat, align 8

; Function Attrs: mustprogress nounwind uwtable
define linkonce_odr hidden noundef zeroext i1 @_ZNK13LogOutputList8is_levelEN8LogLevel4typeE(ptr noundef nonnull align 8 dereferenceable(52) %0, i32 noundef %1) #1 comdat align 2 {
  %3 = alloca ptr, align 8
  %4 = alloca i32, align 4
  store ptr %0, ptr %3, align 8
  store i32 %1, ptr %4, align 4
  %5 = load ptr, ptr %3, align 8
  %6 = getelementptr inbounds %class.LogOutputList, ptr %5, i32 0, i32 0
  %7 = load i32, ptr %4, align 4
  %8 = zext i32 %7 to i64
  %9 = getelementptr inbounds [6 x ptr], ptr %6, i64 0, i64 %8
  %10 = load volatile ptr, ptr %9, align 8
  %11 = icmp ne ptr %10, null
  ret i1 %11
}

; Function Attrs: mustprogress nounwind uwtable
define linkonce_odr hidden noundef zeroext i1 @_ZNK9LogTagSet8is_levelEN8LogLevel4typeE(ptr noundef nonnull align 8 dereferenceable(112) %0, i32 noundef %1) #1 comdat align 2 {
  %3 = alloca ptr, align 8
  %4 = alloca i32, align 4
  store ptr %0, ptr %3, align 8
  store i32 %1, ptr %4, align 4
  %5 = load ptr, ptr %3, align 8
  %6 = getelementptr inbounds %class.LogTagSet, ptr %5, i32 0, i32 4
  %7 = load i32, ptr %4, align 4
  %8 = call noundef zeroext i1 @_ZNK13LogOutputList8is_levelEN8LogLevel4typeE(ptr noundef nonnull align 8 dereferenceable(52) %6, i32 noundef %7)
  ret i1 %8
}

; Function Attrs: mustprogress nounwind uwtable
define linkonce_odr hidden noundef nonnull align 8 dereferenceable(112) ptr @_ZN16LogTagSetMappingILN6LogTag4typeE49ELS1_158ELS1_0ELS1_0ELS1_0ELS1_0EE6tagsetEv() #1 comdat align 2 {
  ret ptr @_ZN16LogTagSetMappingILN6LogTag4typeE49ELS1_158ELS1_0ELS1_0ELS1_0ELS1_0EE7_tagsetE
}

; Function Attrs: mustprogress nounwind uwtable
define hidden void @_ZN15G1ServiceThread13schedule_taskEP13G1ServiceTaskl(ptr noundef nonnull align 8 dereferenceable(1064) %0, ptr noundef %1, i64 noundef %2) #1 align 2 {
  %4 = alloca ptr, align 8
  %5 = alloca ptr, align 8
  %6 = alloca i64, align 8
  store ptr %0, ptr %4, align 8
  store ptr %1, ptr %5, align 8
  store i64 %2, ptr %6, align 8
  %7 = load ptr, ptr %4, align 8
  %8 = load ptr, ptr %5, align 8
  %9 = load i64, ptr %6, align 8
  call void @_ZN15G1ServiceThread8scheduleEP13G1ServiceTasklb(ptr noundef nonnull align 8 dereferenceable(1064) %7, ptr noundef %8, i64 noundef %9, i1 noundef zeroext true)
  ret void
}

; Function Attrs: mustprogress nounwind uwtable
define hidden void @_ZN13G1ServiceTask18set_service_threadEP15G1ServiceThread(ptr noundef nonnull align 8 dereferenceable(40) %0, ptr noundef %1) #1 align 2 {
  %3 = alloca ptr, align 8
  %4 = alloca ptr, align 8
  store ptr %0, ptr %3, align 8
  store ptr %1, ptr %4, align 8
  %5 = load ptr, ptr %3, align 8
  %6 = load ptr, ptr %4, align 8
  %7 = getelementptr inbounds %class.G1ServiceTask, ptr %5, i32 0, i32 4
  store ptr %6, ptr %7, align 8
  ret void
}

; Function Attrs: mustprogress nounwind uwtable
define hidden noundef ptr @_ZN13G1ServiceTask4nameEv(ptr noundef nonnull align 8 dereferenceable(40) %0) #1 align 2 {
  %2 = alloca ptr, align 8
  store ptr %0, ptr %2, align 8
  %3 = load ptr, ptr %2, align 8
  %4 = getelementptr inbounds %class.G1ServiceTask, ptr %3, i32 0, i32 2
  %5 = load ptr, ptr %4, align 8
  ret ptr %5
}

; Function Attrs: mustprogress nounwind uwtable
define linkonce_odr hidden noundef zeroext i1 @_ZN7LogImplILN6LogTag4typeE49ELS1_158ELS1_0ELS1_0ELS1_0ELS1_0EE8is_levelEN8LogLevel4typeE(i32 noundef %0) #1 comdat align 2 {
  %2 = alloca i32, align 4
  store i32 %0, ptr %2, align 4
  %3 = call noundef nonnull align 8 dereferenceable(112) ptr @_ZN16LogTagSetMappingILN6LogTag4typeE49ELS1_158ELS1_0ELS1_0ELS1_0ELS1_0EE6tagsetEv()
  %4 = load i32, ptr %2, align 4
  %5 = call noundef zeroext i1 @_ZNK9LogTagSet8is_levelEN8LogLevel4typeE(ptr noundef nonnull align 8 dereferenceable(112) %3, i32 noundef %4)
  ret i1 %5
}

; Function Attrs: mustprogress nounwind uwtable
define hidden noundef ptr @_ZN13G1ServiceTask4nextEv(ptr noundef nonnull align 8 dereferenceable(40) %0) #1 align 2 {
  %2 = alloca ptr, align 8
  store ptr %0, ptr %2, align 8
  %3 = load ptr, ptr %2, align 8
  %4 = getelementptr inbounds %class.G1ServiceTask, ptr %3, i32 0, i32 3
  %5 = load ptr, ptr %4, align 8
  ret ptr %5
}

; Function Attrs: mustprogress nounwind uwtable
define hidden noundef zeroext i1 @_ZN13G1ServiceTask13is_registeredEv(ptr noundef nonnull align 8 dereferenceable(40) %0) #1 align 2 {
  %2 = alloca ptr, align 8
  store ptr %0, ptr %2, align 8
  %3 = load ptr, ptr %2, align 8
  %4 = getelementptr inbounds %class.G1ServiceTask, ptr %3, i32 0, i32 4
  %5 = load ptr, ptr %4, align 8
  %6 = icmp ne ptr %5, null
  ret i1 %6
}

; Function Attrs: mustprogress nounwind uwtable
define hidden void @_ZN15G1ServiceThread13register_taskEP13G1ServiceTaskl(ptr noundef nonnull align 8 dereferenceable(1064) %0, ptr noundef %1, i64 noundef %2) #1 align 2 {
  %4 = alloca ptr, align 8
  %5 = alloca ptr, align 8
  %6 = alloca i64, align 8
  store ptr %0, ptr %4, align 8
  store ptr %1, ptr %5, align 8
  store i64 %2, ptr %6, align 8
  %7 = load ptr, ptr %4, align 8
  br label %8

8:                                                ; preds = %3
  %9 = load ptr, ptr %5, align 8
  %10 = call noundef zeroext i1 @_ZN13G1ServiceTask13is_registeredEv(ptr noundef nonnull align 8 dereferenceable(40) %9)
  br i1 %10, label %11, label %13

11:                                               ; preds = %8
  %12 = load ptr, ptr @g_assert_poison, align 8
  store i8 88, ptr %12, align 1
  call void (ptr, i32, ptr, ptr, ...) @_Z15report_vm_errorPKciS0_S0_z(ptr noundef @.str.4, i32 noundef 51, ptr noundef @.str.9, ptr noundef @.str.10) #7
  unreachable

13:                                               ; preds = %8
  br label %14

14:                                               ; preds = %13
  br label %15

15:                                               ; preds = %14
  %16 = load ptr, ptr %5, align 8
  %17 = call noundef ptr @_ZN13G1ServiceTask4nextEv(ptr noundef nonnull align 8 dereferenceable(40) %16)
  %18 = icmp eq ptr %17, null
  br i1 %18, label %21, label %19

19:                                               ; preds = %15
  %20 = load ptr, ptr @g_assert_poison, align 8
  store i8 88, ptr %20, align 1
  call void (ptr, i32, ptr, ptr, ...) @_Z15report_vm_errorPKciS0_S0_z(ptr noundef @.str.4, i32 noundef 52, ptr noundef @.str.11, ptr noundef @.str.12) #7
  unreachable

21:                                               ; preds = %15
  br label %22

22:                                               ; preds = %21
  %23 = call noundef zeroext i1 @_ZNK18ConcurrentGCThread14has_terminatedEv(ptr noundef nonnull align 8 dereferenceable(918) %7)
  br i1 %23, label %24, label %31

24:                                               ; preds = %22
  %25 = call noundef zeroext i1 @_ZN7LogImplILN6LogTag4typeE49ELS1_158ELS1_0ELS1_0ELS1_0ELS1_0EE8is_levelEN8LogLevel4typeE(i32 noundef 2)
  br i1 %25, label %27, label %26

26:                                               ; preds = %24
  br label %30

27:                                               ; preds = %24
  %28 = load ptr, ptr %5, align 8
  %29 = call noundef ptr @_ZN13G1ServiceTask4nameEv(ptr noundef nonnull align 8 dereferenceable(40) %28)
  call void (ptr, ...) @_ZN7LogImplILN6LogTag4typeE49ELS1_158ELS1_0ELS1_0ELS1_0ELS1_0EE5writeILN8LogLevel4typeE2EEEvPKcz(ptr noundef @.str.13, ptr noundef %29)
  br label %30

30:                                               ; preds = %27, %26
  br label %41

31:                                               ; preds = %22
  %32 = call noundef zeroext i1 @_ZN7LogImplILN6LogTag4typeE49ELS1_158ELS1_0ELS1_0ELS1_0ELS1_0EE8is_levelEN8LogLevel4typeE(i32 noundef 2)
  br i1 %32, label %34, label %33

33:                                               ; preds = %31
  br label %37

34:                                               ; preds = %31
  %35 = load ptr, ptr %5, align 8
  %36 = call noundef ptr @_ZN13G1ServiceTask4nameEv(ptr noundef nonnull align 8 dereferenceable(40) %35)
  call void (ptr, ...) @_ZN7LogImplILN6LogTag4typeE49ELS1_158ELS1_0ELS1_0ELS1_0ELS1_0EE5writeILN8LogLevel4typeE2EEEvPKcz(ptr noundef @.str.14, ptr noundef %36)
  br label %37

37:                                               ; preds = %34, %33
  %38 = load ptr, ptr %5, align 8
  call void @_ZN13G1ServiceTask18set_service_threadEP15G1ServiceThread(ptr noundef nonnull align 8 dereferenceable(40) %38, ptr noundef %7)
  %39 = load ptr, ptr %5, align 8
  %40 = load i64, ptr %6, align 8
  call void @_ZN15G1ServiceThread13schedule_taskEP13G1ServiceTaskl(ptr noundef nonnull align 8 dereferenceable(1064) %7, ptr noundef %39, i64 noundef %40)
  br label %41

41:                                               ; preds = %37, %30
  ret void
}