; Function Attrs: mustprogress nounwind uwtable
define hidden void @_ZN15G1ServiceThread13register_taskEP13G1ServiceTaskl(ptr noundef nonnull align 8 dereferenceable(1064) %0, ptr noundef %1, i64 noundef %2) local_unnamed_addr #3 align 2 {
  %4 = getelementptr inbounds i8, ptr %1, i64 32
  %5 = load ptr, ptr %4, align 8
  %.not = icmp eq ptr %5, null
  br i1 %.not, label %8, label %6

6:                                                ; preds = %3
  %7 = load ptr, ptr @g_assert_poison, align 8
  store i8 88, ptr %7, align 1
  tail call void (ptr, i32, ptr, ptr, ...) @_Z15report_vm_errorPKciS0_S0_z(ptr noundef nonnull @.str.4, i32 noundef 51, ptr noundef nonnull @.str.9, ptr noundef nonnull @.str.10) #14
  unreachable

8:                                                ; preds = %3
  %9 = getelementptr inbounds i8, ptr %1, i64 24
  %10 = load ptr, ptr %9, align 8
  %11 = icmp eq ptr %10, null
  br i1 %11, label %14, label %12

12:                                               ; preds = %8
  %13 = load ptr, ptr @g_assert_poison, align 8
  store i8 88, ptr %13, align 1
  tail call void (ptr, i32, ptr, ptr, ...) @_Z15report_vm_errorPKciS0_S0_z(ptr noundef nonnull @.str.4, i32 noundef 52, ptr noundef nonnull @.str.11, ptr noundef nonnull @.str.12) #14
  unreachable

14:                                               ; preds = %8
  %15 = tail call noundef zeroext i1 @_ZNK18ConcurrentGCThread14has_terminatedEv(ptr noundef nonnull align 8 dereferenceable(918) %0) #15
  %16 = load volatile ptr, ptr getelementptr inbounds (i8, ptr @_ZN16LogTagSetMappingILN6LogTag4typeE49ELS1_158ELS1_0ELS1_0ELS1_0ELS1_0EE7_tagsetE, i64 56), align 8
  %.not8 = icmp eq ptr %16, null
  br i1 %15, label %17, label %21

17:                                               ; preds = %14
  br i1 %.not8, label %26, label %18

18:                                               ; preds = %17
  %19 = getelementptr inbounds i8, ptr %1, i64 16
  %20 = load ptr, ptr %19, align 8
  tail call void (ptr, ...) @_ZN7LogImplILN6LogTag4typeE49ELS1_158ELS1_0ELS1_0ELS1_0ELS1_0EE5writeILN8LogLevel4typeE2EEEvPKcz(ptr noundef nonnull @.str.13, ptr noundef %20)
  br label %26

21:                                               ; preds = %14
  br i1 %.not8, label %25, label %22

22:                                               ; preds = %21
  %23 = getelementptr inbounds i8, ptr %1, i64 16
  %24 = load ptr, ptr %23, align 8
  tail call void (ptr, ...) @_ZN7LogImplILN6LogTag4typeE49ELS1_158ELS1_0ELS1_0ELS1_0ELS1_0EE5writeILN8LogLevel4typeE2EEEvPKcz(ptr noundef nonnull @.str.14, ptr noundef %24)
  br label %25

25:                                               ; preds = %21, %22
  store ptr %0, ptr %4, align 8
  tail call void @_ZN15G1ServiceThread8scheduleEP13G1ServiceTasklb(ptr noundef nonnull align 8 dereferenceable(1064) %0, ptr noundef nonnull %1, i64 noundef %2, i1 noundef zeroext true)
  br label %26

26:                                               ; preds = %18, %17, %25
  ret void
}